Certificate:
    Data:
        Version: 1 (0x0)
        Serial Number: 2 (0x2)
    Signature Algorithm: sha512WithRSAEncryption
        Issuer: C=US, ST=CA, O=Open vSwitch, OU=switchca, CN=OVS switchca CA Certificate (2021 Sep 06 10:01:30)
        Validity
            Not Before: Sep  6 02:01:31 2021 GMT
            Not After : Sep  4 02:01:31 2031 GMT
        Subject: C=US, ST=CA, O=Open vSwitch, OU=Open vSwitch certifier, CN=tests/pki/test id:21c52d3f-1512-44b3-86e6-ec7805e06718
        Subject Public Key Info:
            Public Key Algorithm: rsaEncryption
                Public-Key: (2048 bit)
                Modulus:
                    00:f0:fe:00:a1:9a:c3:82:2c:1d:99:d1:af:30:ec:
                    34:94:e4:65:38:5c:29:cd:c5:94:69:17:f1:8f:f4:
                    d5:b6:e9:8e:6a:a9:79:d1:46:4e:41:97:65:56:d0:
                    71:38:7f:fb:2f:2e:9a:6f:76:3f:46:90:d5:62:66:
                    21:48:49:88:06:c5:ac:18:01:21:cc:35:76:ad:20:
                    cc:b1:85:d1:98:8e:e1:15:b8:15:87:69:97:f3:89:
                    5b:86:87:04:18:6d:b8:5c:a1:b1:e8:d3:8c:83:20:
                    cf:5b:b7:e9:97:2f:5e:e8:fb:41:45:90:d6:3e:59:
                    7b:1a:39:ff:81:f4:66:eb:92:00:f3:20:1e:8b:8f:
                    c5:ee:16:67:3e:c6:24:4a:ae:b0:89:ed:ef:8d:f7:
                    75:c5:8d:1e:f7:3a:81:2e:74:e3:dd:8f:c5:25:59:
                    16:44:48:8b:75:bc:e9:fb:37:6d:25:fb:40:df:b7:
                    10:5a:18:0a:90:05:14:5e:dc:9f:25:f4:8b:a2:c2:
                    76:54:7b:04:a7:c8:69:e8:01:38:64:66:83:fb:53:
                    ee:98:cf:d1:2f:57:2c:88:c2:1e:c1:6c:10:7d:3e:
                    5e:f7:13:50:76:fc:34:23:a5:e8:18:0f:00:3d:04:
                    46:69:2a:29:e1:28:3c:04:6d:9d:53:1f:7b:11:93:
                    02:95
                Exponent: 65537 (0x10001)
    Signature Algorithm: sha512WithRSAEncryption
         ac:42:15:62:a1:4b:e2:f4:c8:de:0a:2c:2d:76:56:ff:47:c8:
         d7:5d:a5:28:89:26:24:c5:d9:90:3a:6d:62:9d:d3:49:08:49:
         42:59:a5:8f:6c:65:b2:71:40:eb:a3:9f:19:d8:9d:cf:6a:fe:
         3e:62:e9:0f:45:71:76:78:0e:95:0c:5d:72:91:61:19:c5:d0:
         b8:a2:2b:5b:84:86:b1:59:6e:92:8d:a5:b4:ac:8f:25:07:44:
         a8:61:d5:1e:40:d8:ea:8d:41:c0:12:a3:75:02:8b:7a:b6:98:
         13:cc:3b:c7:c8:87:4c:b7:88:e9:87:50:7e:ef:13:71:c7:a9:
         ea:d7:15:33:9b:9d:7c:d7:db:5e:a2:09:10:ce:da:b2:d5:67:
         35:d1:cf:60:82:a7:56:eb:96:26:17:c4:46:db:dc:ac:ff:62:
         05:65:3f:a6:25:a6:d1:29:f6:c2:10:11:59:71:7c:13:1f:f1:
         46:bd:aa:f9:9a:10:f4:48:eb:52:6e:ac:f2:95:aa:32:79:71:
         57:ca:fe:7f:ac:a8:e0:f5:eb:46:06:d1:43:cd:d5:d3:f0:eb:
         a0:c8:43:e6:97:dd:0d:f0:b6:d3:96:94:18:f0:2a:b3:52:d5:
         ca:fe:5c:c3:2f:3d:75:d2:1b:d9:85:67:9e:13:9b:03:6f:63:
         ce:0f:74:d4
-----BEGIN CERTIFICATE-----
MIIDijCCAnICAQIwDQYJKoZIhvcNAQENBQAwgYExCzAJBgNVBAYTAlVTMQswCQYD
VQQIDAJDQTEVMBMGA1UECgwMT3BlbiB2U3dpdGNoMREwDwYDVQQLDAhzd2l0Y2hj
YTE7MDkGA1UEAwwyT1ZTIHN3aXRjaGNhIENBIENlcnRpZmljYXRlICgyMDIxIFNl
cCAwNiAxMDowMTozMCkwHhcNMjEwOTA2MDIwMTMxWhcNMzEwOTA0MDIwMTMxWjCB
kzELMAkGA1UEBhMCVVMxCzAJBgNVBAgMAkNBMRUwEwYDVQQKDAxPcGVuIHZTd2l0
Y2gxHzAdBgNVBAsMFk9wZW4gdlN3aXRjaCBjZXJ0aWZpZXIxPzA9BgNVBAMMNnRl
c3RzL3BraS90ZXN0IGlkOjIxYzUyZDNmLTE1MTItNDRiMy04NmU2LWVjNzgwNWUw
NjcxODCCASIwDQYJKoZIhvcNAQEBBQADggEPADCCAQoCggEBAPD+AKGaw4IsHZnR
rzDsNJTkZThcKc3FlGkX8Y/01bbpjmqpedFGTkGXZVbQcTh/+y8umm92P0aQ1WJm
IUhJiAbFrBgBIcw1dq0gzLGF0ZiO4RW4FYdpl/OJW4aHBBhtuFyhsejTjIMgz1u3
6ZcvXuj7QUWQ1j5Zexo5/4H0ZuuSAPMgHouPxe4WZz7GJEqusInt7433dcWNHvc6
gS50492PxSVZFkRIi3W86fs3bSX7QN+3EFoYCpAFFF7cnyX0i6LCdlR7BKfIaegB
OGRmg/tT7pjP0S9XLIjCHsFsEH0+XvcTUHb8NCOl6BgPAD0ERmkqKeEoPARtnVMf
exGTApUCAwEAATANBgkqhkiG9w0BAQ0FAAOCAQEArEIVYqFL4vTI3gosLXZW/0fI
112lKIkmJMXZkDptYp3TSQhJQlmlj2xlsnFA66OfGdidz2r+PmLpD0VxdngOlQxd
cpFhGcXQuKIrW4SGsVluko2ltKyPJQdEqGHVHkDY6o1BwBKjdQKLeraYE8w7x8iH
TLeI6YdQfu8Tccep6tcVM5udfNfbXqIJEM7astVnNdHPYIKnVuuWJhfERtvcrP9i
BWU/piWm0Sn2whARWXF8Ex/xRr2q+ZoQ9EjrUm6s8pWqMnlxV8r+f6yo4PXrRgbR
Q83V0/DroMhD5pfdDfC205aUGPAqs1LVyv5cwy89ddIb2YVnnhObA29jzg901A==
-----END CERTIFICATE-----
