Certificate Request:
    Data:
        Version: 0 (0x0)
        Subject: C=US, ST=CA, L=Palo Alto, O=Open vSwitch, OU=Open vSwitch certifier, CN=tests/pki/test id:21c52d3f-1512-44b3-86e6-ec7805e06718
        Subject Public Key Info:
            Public Key Algorithm: rsaEncryption
                Public-Key: (2048 bit)
                Modulus:
                    00:f0:fe:00:a1:9a:c3:82:2c:1d:99:d1:af:30:ec:
                    34:94:e4:65:38:5c:29:cd:c5:94:69:17:f1:8f:f4:
                    d5:b6:e9:8e:6a:a9:79:d1:46:4e:41:97:65:56:d0:
                    71:38:7f:fb:2f:2e:9a:6f:76:3f:46:90:d5:62:66:
                    21:48:49:88:06:c5:ac:18:01:21:cc:35:76:ad:20:
                    cc:b1:85:d1:98:8e:e1:15:b8:15:87:69:97:f3:89:
                    5b:86:87:04:18:6d:b8:5c:a1:b1:e8:d3:8c:83:20:
                    cf:5b:b7:e9:97:2f:5e:e8:fb:41:45:90:d6:3e:59:
                    7b:1a:39:ff:81:f4:66:eb:92:00:f3:20:1e:8b:8f:
                    c5:ee:16:67:3e:c6:24:4a:ae:b0:89:ed:ef:8d:f7:
                    75:c5:8d:1e:f7:3a:81:2e:74:e3:dd:8f:c5:25:59:
                    16:44:48:8b:75:bc:e9:fb:37:6d:25:fb:40:df:b7:
                    10:5a:18:0a:90:05:14:5e:dc:9f:25:f4:8b:a2:c2:
                    76:54:7b:04:a7:c8:69:e8:01:38:64:66:83:fb:53:
                    ee:98:cf:d1:2f:57:2c:88:c2:1e:c1:6c:10:7d:3e:
                    5e:f7:13:50:76:fc:34:23:a5:e8:18:0f:00:3d:04:
                    46:69:2a:29:e1:28:3c:04:6d:9d:53:1f:7b:11:93:
                    02:95
                Exponent: 65537 (0x10001)
        Attributes:
            a0:00
    Signature Algorithm: sha256WithRSAEncryption
         17:e2:3e:38:dc:28:a0:4b:c8:9e:cd:41:e6:b1:c6:47:3c:ef:
         87:71:b9:65:f5:bb:b2:cd:f7:e3:7c:a7:4a:2a:67:3d:fe:3c:
         4a:3c:6b:c6:28:fe:09:c0:a9:6b:5c:81:a6:8b:12:dd:64:5e:
         2e:8c:db:26:0b:b0:34:77:1c:7b:95:7b:1c:d9:6b:ce:be:6b:
         76:7e:c7:4c:90:9a:1b:47:5a:42:11:3c:70:31:92:9a:1e:fa:
         1c:37:41:0c:92:51:da:90:95:af:4d:da:d7:a0:fc:ab:e4:10:
         8a:02:a0:00:39:d0:0d:f8:c0:91:7e:08:88:29:f5:79:5c:0e:
         d1:a2:64:a7:3c:2b:86:1a:88:08:9e:db:27:20:57:0a:05:5f:
         b4:ea:5d:43:b1:b1:57:0a:90:d2:86:82:09:9a:19:0a:77:4e:
         1c:9b:fe:f4:32:26:78:7a:37:4f:f2:18:8c:d6:73:44:ce:e8:
         97:c4:00:00:2f:8c:d2:21:12:47:25:6f:18:fc:93:03:cd:c4:
         99:c8:67:2b:24:6e:12:d8:d4:52:8e:3e:18:ab:08:a8:93:2b:
         c7:25:54:6f:84:12:fa:af:2f:85:25:69:64:4e:2a:b4:65:88:
         40:30:e2:04:45:ba:c6:7b:b6:49:bf:fe:31:ac:f9:61:58:4f:
         91:9b:d0:18
-----BEGIN CERTIFICATE REQUEST-----
MIIC7TCCAdUCAQAwgacxCzAJBgNVBAYTAlVTMQswCQYDVQQIDAJDQTESMBAGA1UE
BwwJUGFsbyBBbHRvMRUwEwYDVQQKDAxPcGVuIHZTd2l0Y2gxHzAdBgNVBAsMFk9w
ZW4gdlN3aXRjaCBjZXJ0aWZpZXIxPzA9BgNVBAMMNnRlc3RzL3BraS90ZXN0IGlk
OjIxYzUyZDNmLTE1MTItNDRiMy04NmU2LWVjNzgwNWUwNjcxODCCASIwDQYJKoZI
hvcNAQEBBQADggEPADCCAQoCggEBAPD+AKGaw4IsHZnRrzDsNJTkZThcKc3FlGkX
8Y/01bbpjmqpedFGTkGXZVbQcTh/+y8umm92P0aQ1WJmIUhJiAbFrBgBIcw1dq0g
zLGF0ZiO4RW4FYdpl/OJW4aHBBhtuFyhsejTjIMgz1u36ZcvXuj7QUWQ1j5Zexo5
/4H0ZuuSAPMgHouPxe4WZz7GJEqusInt7433dcWNHvc6gS50492PxSVZFkRIi3W8
6fs3bSX7QN+3EFoYCpAFFF7cnyX0i6LCdlR7BKfIaegBOGRmg/tT7pjP0S9XLIjC
HsFsEH0+XvcTUHb8NCOl6BgPAD0ERmkqKeEoPARtnVMfexGTApUCAwEAAaAAMA0G
CSqGSIb3DQEBCwUAA4IBAQAX4j443CigS8iezUHmscZHPO+Hcbll9buyzffjfKdK
Kmc9/jxKPGvGKP4JwKlrXIGmixLdZF4ujNsmC7A0dxx7lXsc2WvOvmt2fsdMkJob
R1pCETxwMZKaHvocN0EMklHakJWvTdrXoPyr5BCKAqAAOdAN+MCRfgiIKfV5XA7R
omSnPCuGGogIntsnIFcKBV+06l1DsbFXCpDShoIJmhkKd04cm/70MiZ4ejdP8hiM
1nNEzuiXxAAAL4zSIRJHJW8Y/JMDzcSZyGcrJG4S2NRSjj4YqwiokyvHJVRvhBL6
ry+FJWlkTiq0ZYhAMOIERbrGe7ZJv/4xrPlhWE+Rm9AY
-----END CERTIFICATE REQUEST-----
