Certificate Request:
    Data:
        Version: 0 (0x0)
        Subject: C=US, ST=CA, L=Palo Alto, O=Open vSwitch, OU=Open vSwitch certifier, CN=tests/pki/test2 id:c6879d43-7f7e-4e26-8e8c-780d15569343
        Subject Public Key Info:
            Public Key Algorithm: rsaEncryption
                Public-Key: (2048 bit)
                Modulus:
                    00:ba:34:35:c6:d0:9c:8c:54:2b:18:11:6a:ae:ab:
                    d2:c3:b3:bc:7f:8a:e8:4b:29:99:46:4c:2e:10:ff:
                    91:ff:e1:aa:83:4b:79:97:7a:f9:b9:ec:77:3c:8f:
                    84:70:78:91:ec:dc:9f:bb:6c:cc:8f:fe:42:e5:4c:
                    c4:df:48:c3:e2:e8:40:c0:29:7e:8c:53:f9:a8:d9:
                    f0:de:93:e3:2c:b2:8e:fc:02:67:9e:b4:54:ef:62:
                    87:d9:ec:11:ae:00:72:6c:44:ee:0b:57:e7:f0:62:
                    f1:a9:4a:35:73:c9:be:9f:84:a2:b5:e7:92:4e:c8:
                    27:df:9a:da:b3:53:f0:91:fe:b0:f9:ff:04:58:b5:
                    f5:30:bd:ae:73:e6:92:72:7e:09:bf:b3:bc:e4:73:
                    ce:73:0b:43:41:08:e4:2d:af:4a:da:7d:85:d5:0a:
                    46:04:49:9a:29:ab:96:c6:72:77:72:dc:a0:96:56:
                    95:2f:0c:56:15:d7:2e:1c:3b:3f:0b:93:06:03:de:
                    62:90:8d:cb:45:07:43:64:ce:db:81:b1:98:af:04:
                    b2:50:2b:4b:40:c7:4a:31:0b:1a:da:e9:b4:b9:29:
                    e3:c2:65:c2:aa:01:e2:5b:53:76:26:94:fb:a6:2c:
                    6d:ce:7f:f6:4c:65:d0:28:9b:45:38:d8:64:2a:34:
                    5f:5d
                Exponent: 65537 (0x10001)
        Attributes:
            a0:00
    Signature Algorithm: sha256WithRSAEncryption
         1e:3a:b9:64:23:d9:2e:8f:4a:60:bf:92:ed:b0:26:e6:e6:d6:
         7f:1c:bb:de:0b:94:6c:ee:eb:fa:c7:43:94:9e:9e:bb:1d:92:
         b4:99:a9:bd:83:41:bc:00:bd:1d:fb:55:ef:fb:df:eb:d3:f8:
         af:de:2e:0f:9c:d6:68:72:27:1f:42:4d:5a:fd:8b:92:d6:f3:
         9a:10:ca:b3:a8:6c:f6:56:1b:b0:9b:84:45:a3:22:f1:98:c1:
         c8:16:91:c7:c1:b2:aa:18:0f:9e:09:29:85:de:65:ba:78:26:
         5f:e0:28:5d:ef:1a:25:00:00:1a:14:d0:d5:7e:08:94:e9:1c:
         77:06:6d:20:97:cb:52:04:30:17:ff:9d:89:5e:53:44:70:09:
         18:37:63:37:fb:30:1a:97:fd:35:f9:25:38:f7:84:eb:cd:80:
         7b:c2:37:e7:41:79:8b:a0:f8:5b:86:18:c4:61:4c:f0:36:39:
         21:e8:44:69:89:c3:b3:74:67:31:ff:84:ab:db:5d:09:9b:ed:
         46:31:0b:0e:15:d1:8b:d2:c7:0d:89:2b:5a:62:33:7a:7b:a8:
         b1:52:4e:b4:49:98:96:1c:7f:dd:8e:57:b4:c5:13:98:eb:f3:
         a6:08:ac:b9:ea:f0:a3:f3:90:a6:28:15:9f:75:0f:9c:aa:fd:
         88:48:71:ce
-----BEGIN CERTIFICATE REQUEST-----
MIIC7jCCAdYCAQAwgagxCzAJBgNVBAYTAlVTMQswCQYDVQQIDAJDQTESMBAGA1UE
BwwJUGFsbyBBbHRvMRUwEwYDVQQKDAxPcGVuIHZTd2l0Y2gxHzAdBgNVBAsMFk9w
ZW4gdlN3aXRjaCBjZXJ0aWZpZXIxQDA+BgNVBAMMN3Rlc3RzL3BraS90ZXN0MiBp
ZDpjNjg3OWQ0My03ZjdlLTRlMjYtOGU4Yy03ODBkMTU1NjkzNDMwggEiMA0GCSqG
SIb3DQEBAQUAA4IBDwAwggEKAoIBAQC6NDXG0JyMVCsYEWquq9LDs7x/iuhLKZlG
TC4Q/5H/4aqDS3mXevm57Hc8j4RweJHs3J+7bMyP/kLlTMTfSMPi6EDAKX6MU/mo
2fDek+Msso78AmeetFTvYofZ7BGuAHJsRO4LV+fwYvGpSjVzyb6fhKK155JOyCff
mtqzU/CR/rD5/wRYtfUwva5z5pJyfgm/s7zkc85zC0NBCOQtr0rafYXVCkYESZop
q5bGcndy3KCWVpUvDFYV1y4cOz8LkwYD3mKQjctFB0NkztuBsZivBLJQK0tAx0ox
Cxra6bS5KePCZcKqAeJbU3YmlPumLG3Of/ZMZdAom0U42GQqNF9dAgMBAAGgADAN
BgkqhkiG9w0BAQsFAAOCAQEAHjq5ZCPZLo9KYL+S7bAm5ubWfxy73guUbO7r+sdD
lJ6eux2StJmpvYNBvAC9HftV7/vf69P4r94uD5zWaHInH0JNWv2LktbzmhDKs6hs
9lYbsJuERaMi8ZjByBaRx8GyqhgPngkphd5lungmX+AoXe8aJQAAGhTQ1X4IlOkc
dwZtIJfLUgQwF/+diV5TRHAJGDdjN/swGpf9NfklOPeE682Ae8I350F5i6D4W4YY
xGFM8DY5IehEaYnDs3RnMf+Eq9tdCZvtRjELDhXRi9LHDYkrWmIzenuosVJOtEmY
lhx/3Y5XtMUTmOvzpgisuerwo/OQpigVn3UPnKr9iEhxzg==
-----END CERTIFICATE REQUEST-----
