Certificate:
    Data:
        Version: 1 (0x0)
        Serial Number: 1 (0x1)
    Signature Algorithm: sha512WithRSAEncryption
        Issuer: C=US, ST=CA, O=Open vSwitch, OU=switchca, CN=OVS switchca CA Certificate (2021 Sep 06 10:01:30)
        Validity
            Not Before: Sep  6 02:01:31 2021 GMT
            Not After : Sep  4 02:01:31 2031 GMT
        Subject: C=US, ST=CA, O=Open vSwitch, OU=switchca, CN=OVS switchca CA Certificate (2021 Sep 06 10:01:30)
        Subject Public Key Info:
            Public Key Algorithm: rsaEncryption
                Public-Key: (2048 bit)
                Modulus:
                    00:be:08:55:b7:96:18:eb:ee:a9:0d:44:da:8c:ae:
                    3f:34:66:92:51:14:7f:aa:62:64:64:fc:1c:10:31:
                    9c:3c:f7:40:ef:1d:95:8a:e7:af:7c:99:a4:a2:15:
                    c1:f8:1c:d7:23:d2:94:80:54:59:0a:81:f7:1e:2c:
                    0f:f3:ae:24:b4:b4:07:86:a5:d6:6d:a3:22:21:ff:
                    61:7b:71:54:54:ab:2b:54:ea:b7:ee:4f:ce:6a:96:
                    89:59:22:16:92:f7:07:30:88:b0:fd:61:6c:22:d0:
                    12:f5:c0:8f:2b:14:d4:55:99:9d:7b:b5:f4:7f:fd:
                    8b:f6:bb:34:dc:ce:9f:bf:73:aa:ea:79:64:fb:58:
                    b4:0c:0d:78:eb:1f:db:9d:25:7b:b1:ed:cc:d2:f8:
                    63:6f:5c:2d:a3:8d:50:0d:bb:39:5f:b6:d1:4c:03:
                    03:1c:25:74:0b:4a:aa:83:5b:49:d3:c1:73:00:31:
                    7b:32:04:55:72:9e:a6:46:fe:ad:95:ce:19:80:4b:
                    af:9b:5d:ce:bd:39:e0:3c:51:64:48:00:b6:be:42:
                    e2:51:43:96:cc:f4:e5:3c:a4:0a:2c:39:a0:57:8f:
                    f5:f4:93:7d:cd:1c:e7:d9:6d:01:9e:74:1e:a3:4b:
                    f3:4e:2e:e1:13:d9:cf:ac:a7:a1:e6:ab:8f:aa:02:
                    c0:2b
                Exponent: 65537 (0x10001)
    Signature Algorithm: sha512WithRSAEncryption
         0d:a8:d9:df:95:1d:50:f1:10:44:95:d2:6c:29:f1:2c:da:01:
         e8:cf:f9:9e:77:dc:c2:86:91:85:6e:ee:6c:9b:22:28:28:dd:
         1b:cc:c3:e6:67:15:03:ed:51:09:06:15:78:9a:17:8b:33:e9:
         0a:6f:7c:1a:5c:fa:ed:1b:15:94:f0:55:ba:4a:1b:14:c8:dc:
         00:4b:69:ef:ca:2a:be:fd:3c:1c:1b:73:04:c4:01:14:8a:8a:
         a6:f5:cb:79:33:9f:65:e8:c1:9e:d1:21:d6:08:e7:aa:16:52:
         2c:b1:16:dd:54:bd:13:cc:5e:73:c0:84:93:28:5b:93:5e:52:
         06:15:7a:10:f1:d5:79:d8:2e:62:0a:85:cf:fd:c5:be:b2:3f:
         1f:01:38:ba:5a:05:2b:21:9d:1e:2c:e5:88:d7:b0:6f:ca:a0:
         9a:1f:bf:be:75:49:6b:49:d6:cd:88:f2:36:16:94:57:e7:16:
         5c:fe:55:ce:cf:52:f2:44:12:32:74:a2:33:d0:0e:dd:80:69:
         e7:e6:af:5d:6c:78:c1:df:23:75:91:51:24:6c:1f:fb:ee:0d:
         29:18:06:34:82:de:7c:f4:5d:f1:55:5e:bc:0c:78:bc:ff:77:
         1a:60:8b:77:8f:dd:90:91:a6:7a:73:77:c2:15:fa:34:b0:95:
         de:6f:d3:97
-----BEGIN CERTIFICATE-----
MIIDeDCCAmACAQEwDQYJKoZIhvcNAQENBQAwgYExCzAJBgNVBAYTAlVTMQswCQYD
VQQIDAJDQTEVMBMGA1UECgwMT3BlbiB2U3dpdGNoMREwDwYDVQQLDAhzd2l0Y2hj
YTE7MDkGA1UEAwwyT1ZTIHN3aXRjaGNhIENBIENlcnRpZmljYXRlICgyMDIxIFNl
cCAwNiAxMDowMTozMCkwHhcNMjEwOTA2MDIwMTMxWhcNMzEwOTA0MDIwMTMxWjCB
gTELMAkGA1UEBhMCVVMxCzAJBgNVBAgMAkNBMRUwEwYDVQQKDAxPcGVuIHZTd2l0
Y2gxETAPBgNVBAsMCHN3aXRjaGNhMTswOQYDVQQDDDJPVlMgc3dpdGNoY2EgQ0Eg
Q2VydGlmaWNhdGUgKDIwMjEgU2VwIDA2IDEwOjAxOjMwKTCCASIwDQYJKoZIhvcN
AQEBBQADggEPADCCAQoCggEBAL4IVbeWGOvuqQ1E2oyuPzRmklEUf6piZGT8HBAx
nDz3QO8dlYrnr3yZpKIVwfgc1yPSlIBUWQqB9x4sD/OuJLS0B4al1m2jIiH/YXtx
VFSrK1Tqt+5PzmqWiVkiFpL3BzCIsP1hbCLQEvXAjysU1FWZnXu19H/9i/a7NNzO
n79zqup5ZPtYtAwNeOsf250le7HtzNL4Y29cLaONUA27OV+20UwDAxwldAtKqoNb
SdPBcwAxezIEVXKepkb+rZXOGYBLr5tdzr054DxRZEgAtr5C4lFDlsz05TykCiw5
oFeP9fSTfc0c59ltAZ50HqNL804u4RPZz6ynoearj6oCwCsCAwEAATANBgkqhkiG
9w0BAQ0FAAOCAQEADajZ35UdUPEQRJXSbCnxLNoB6M/5nnfcwoaRhW7ubJsiKCjd
G8zD5mcVA+1RCQYVeJoXizPpCm98Glz67RsVlPBVukobFMjcAEtp78oqvv08HBtz
BMQBFIqKpvXLeTOfZejBntEh1gjnqhZSLLEW3VS9E8xec8CEkyhbk15SBhV6EPHV
edguYgqFz/3FvrI/HwE4uloFKyGdHizliNewb8qgmh+/vnVJa0nWzYjyNhaUV+cW
XP5Vzs9S8kQSMnSiM9AO3YBp5+avXWx4wd8jdZFRJGwf++4NKRgGNILefPRd8VVe
vAx4vP93GmCLd4/dkJGmenN3whX6NLCV3m/Tlw==
-----END CERTIFICATE-----
