Certificate:
    Data:
        Version: 1 (0x0)
        Serial Number: 1 (0x1)
    Signature Algorithm: sha512WithRSAEncryption
        Issuer: C=US, ST=CA, O=Open vSwitch, OU=controllerca, CN=OVS controllerca CA Certificate (2021 Sep 06 10:01:30)
        Validity
            Not Before: Sep  6 02:01:31 2021 GMT
            Not After : Sep  4 02:01:31 2031 GMT
        Subject: C=US, ST=CA, O=Open vSwitch, OU=controllerca, CN=OVS controllerca CA Certificate (2021 Sep 06 10:01:30)
        Subject Public Key Info:
            Public Key Algorithm: rsaEncryption
                Public-Key: (2048 bit)
                Modulus:
                    00:ae:fd:27:85:06:f8:56:32:19:7e:f4:0b:bf:88:
                    fc:f0:c4:5b:91:da:d5:4f:f9:ac:8d:50:8b:04:4c:
                    17:cf:fe:2a:e2:d0:db:78:4c:bc:f9:38:9a:c8:d5:
                    22:fc:24:3a:2f:77:a1:4f:36:b4:6f:40:0b:c2:c9:
                    7c:59:06:4a:38:11:6e:52:91:01:7b:de:02:97:08:
                    70:78:e1:b3:32:6c:eb:0b:be:64:f1:35:e7:5f:da:
                    dd:48:b8:43:71:ff:5f:be:43:fd:83:4d:57:1a:b7:
                    90:6d:00:85:02:eb:80:67:0a:95:a9:41:19:fb:a6:
                    59:8c:f8:e8:3a:a7:55:df:d7:aa:ca:ba:18:cb:b9:
                    00:8e:33:60:c8:eb:ed:60:72:5b:72:a6:17:5f:43:
                    b0:eb:e3:5a:07:df:84:80:f7:7c:7d:0c:f7:7e:b9:
                    7b:4a:f1:df:2c:ea:69:7d:09:1e:d5:58:e1:17:e3:
                    a5:7c:87:ac:02:09:61:15:93:23:d7:ac:00:d8:32:
                    82:a4:4b:3c:fd:b2:d5:c0:2f:41:ef:e0:86:16:76:
                    6f:73:a5:c3:b2:8d:3f:46:05:17:82:2a:87:eb:af:
                    78:73:7a:5e:02:4b:82:d1:df:bc:dc:23:34:a5:12:
                    bb:ce:f1:ac:fb:5c:5b:a0:51:1b:cd:5d:6f:26:36:
                    58:53
                Exponent: 65537 (0x10001)
    Signature Algorithm: sha512WithRSAEncryption
         78:8b:a2:6f:0a:96:7a:e5:ed:06:4f:23:0b:11:08:44:61:4b:
         35:d6:de:e5:3d:85:de:10:35:97:a7:18:03:01:0c:0a:bc:61:
         3f:11:62:0b:d6:35:3a:7c:3e:4e:47:d8:8f:09:30:c2:bf:92:
         e9:89:c0:fc:ea:7d:00:c7:cc:c4:91:18:be:ee:73:07:4c:a1:
         01:8e:a8:3e:64:db:7c:62:47:1e:8b:c2:84:8c:58:6b:b3:3a:
         4c:27:06:88:b9:81:32:d6:85:23:e0:56:00:2a:8a:cc:19:7d:
         8d:48:b2:71:06:65:3f:b7:3f:f4:d5:7b:63:64:4b:c7:61:9a:
         e1:7d:37:db:2d:b8:7a:69:78:02:96:aa:e3:33:89:fb:c4:06:
         25:04:01:d2:e8:37:d5:99:a4:c7:b2:1a:8c:7e:05:56:d7:3a:
         7e:b1:f2:63:0b:e4:03:b3:74:ea:10:e0:91:66:6c:7a:c6:72:
         5f:8f:c8:ae:f3:e4:a9:7a:ee:28:09:9d:ef:42:22:39:08:35:
         43:79:34:a9:2b:d3:9b:44:74:3a:cf:a2:cf:97:c3:e7:a9:d9:
         f4:e4:74:2e:6d:a3:b4:2f:72:6c:ab:5e:b5:02:3b:f7:40:7d:
         f6:ed:1b:b4:5d:c1:e8:ff:f3:de:f8:47:72:2e:fc:a3:67:0d:
         aa:6d:e2:de
-----BEGIN CERTIFICATE-----
MIIDiDCCAnACAQEwDQYJKoZIhvcNAQENBQAwgYkxCzAJBgNVBAYTAlVTMQswCQYD
VQQIDAJDQTEVMBMGA1UECgwMT3BlbiB2U3dpdGNoMRUwEwYDVQQLDAxjb250cm9s
bGVyY2ExPzA9BgNVBAMMNk9WUyBjb250cm9sbGVyY2EgQ0EgQ2VydGlmaWNhdGUg
KDIwMjEgU2VwIDA2IDEwOjAxOjMwKTAeFw0yMTA5MDYwMjAxMzFaFw0zMTA5MDQw
MjAxMzFaMIGJMQswCQYDVQQGEwJVUzELMAkGA1UECAwCQ0ExFTATBgNVBAoMDE9w
ZW4gdlN3aXRjaDEVMBMGA1UECwwMY29udHJvbGxlcmNhMT8wPQYDVQQDDDZPVlMg
Y29udHJvbGxlcmNhIENBIENlcnRpZmljYXRlICgyMDIxIFNlcCAwNiAxMDowMToz
MCkwggEiMA0GCSqGSIb3DQEBAQUAA4IBDwAwggEKAoIBAQCu/SeFBvhWMhl+9Au/
iPzwxFuR2tVP+ayNUIsETBfP/iri0Nt4TLz5OJrI1SL8JDovd6FPNrRvQAvCyXxZ
Bko4EW5SkQF73gKXCHB44bMybOsLvmTxNedf2t1IuENx/1++Q/2DTVcat5BtAIUC
64BnCpWpQRn7plmM+Og6p1Xf16rKuhjLuQCOM2DI6+1gcltyphdfQ7Dr41oH34SA
93x9DPd+uXtK8d8s6ml9CR7VWOEX46V8h6wCCWEVkyPXrADYMoKkSzz9stXAL0Hv
4IYWdm9zpcOyjT9GBReCKofrr3hzel4CS4LR37zcIzSlErvO8az7XFugURvNXW8m
NlhTAgMBAAEwDQYJKoZIhvcNAQENBQADggEBAHiLom8Klnrl7QZPIwsRCERhSzXW
3uU9hd4QNZenGAMBDAq8YT8RYgvWNTp8Pk5H2I8JMMK/kumJwPzqfQDHzMSRGL7u
cwdMoQGOqD5k23xiRx6LwoSMWGuzOkwnBoi5gTLWhSPgVgAqiswZfY1IsnEGZT+3
P/TVe2NkS8dhmuF9N9stuHppeAKWquMzifvEBiUEAdLoN9WZpMeyGox+BVbXOn6x
8mML5AOzdOoQ4JFmbHrGcl+PyK7z5Kl67igJne9CIjkINUN5NKkr05tEdDrPos+X
w+ep2fTkdC5to7QvcmyrXrUCO/dAffbtG7Rdwej/8974R3Iu/KNnDapt4t4=
-----END CERTIFICATE-----
