Certificate:
    Data:
        Version: 1 (0x0)
        Serial Number: 3 (0x3)
    Signature Algorithm: sha512WithRSAEncryption
        Issuer: C=US, ST=CA, O=Open vSwitch, OU=switchca, CN=OVS switchca CA Certificate (2021 Sep 06 10:01:30)
        Validity
            Not Before: Sep  6 02:01:31 2021 GMT
            Not After : Sep  4 02:01:31 2031 GMT
        Subject: C=US, ST=CA, O=Open vSwitch, OU=Open vSwitch certifier, CN=tests/pki/test2 id:c6879d43-7f7e-4e26-8e8c-780d15569343
        Subject Public Key Info:
            Public Key Algorithm: rsaEncryption
                Public-Key: (2048 bit)
                Modulus:
                    00:ba:34:35:c6:d0:9c:8c:54:2b:18:11:6a:ae:ab:
                    d2:c3:b3:bc:7f:8a:e8:4b:29:99:46:4c:2e:10:ff:
                    91:ff:e1:aa:83:4b:79:97:7a:f9:b9:ec:77:3c:8f:
                    84:70:78:91:ec:dc:9f:bb:6c:cc:8f:fe:42:e5:4c:
                    c4:df:48:c3:e2:e8:40:c0:29:7e:8c:53:f9:a8:d9:
                    f0:de:93:e3:2c:b2:8e:fc:02:67:9e:b4:54:ef:62:
                    87:d9:ec:11:ae:00:72:6c:44:ee:0b:57:e7:f0:62:
                    f1:a9:4a:35:73:c9:be:9f:84:a2:b5:e7:92:4e:c8:
                    27:df:9a:da:b3:53:f0:91:fe:b0:f9:ff:04:58:b5:
                    f5:30:bd:ae:73:e6:92:72:7e:09:bf:b3:bc:e4:73:
                    ce:73:0b:43:41:08:e4:2d:af:4a:da:7d:85:d5:0a:
                    46:04:49:9a:29:ab:96:c6:72:77:72:dc:a0:96:56:
                    95:2f:0c:56:15:d7:2e:1c:3b:3f:0b:93:06:03:de:
                    62:90:8d:cb:45:07:43:64:ce:db:81:b1:98:af:04:
                    b2:50:2b:4b:40:c7:4a:31:0b:1a:da:e9:b4:b9:29:
                    e3:c2:65:c2:aa:01:e2:5b:53:76:26:94:fb:a6:2c:
                    6d:ce:7f:f6:4c:65:d0:28:9b:45:38:d8:64:2a:34:
                    5f:5d
                Exponent: 65537 (0x10001)
    Signature Algorithm: sha512WithRSAEncryption
         10:68:08:15:c1:a2:90:12:3b:f9:5b:0a:d6:97:57:82:8d:67:
         04:ca:c6:2f:16:36:0e:9a:8b:12:51:e4:60:ce:d9:c7:e5:e7:
         76:e2:65:df:28:8b:2a:4a:df:b8:0d:07:4b:71:64:da:00:cd:
         6a:8f:62:f3:35:38:a5:5a:b8:63:af:0b:05:50:63:d2:e9:f7:
         34:65:36:a3:6d:8e:56:28:07:99:2e:6d:d7:91:5b:25:20:dc:
         eb:15:88:26:9d:61:3a:96:f7:1f:12:72:b5:3f:dc:ac:a9:11:
         d5:94:82:3d:83:e3:e8:fd:85:1e:46:cf:c8:cd:38:ff:5e:ac:
         01:be:35:e2:3a:bb:a0:9d:6c:1c:3b:5e:c1:e9:40:f2:16:f7:
         83:4d:b7:78:f0:54:e3:9b:72:c1:44:b9:02:1d:c7:5d:4e:54:
         1c:55:3c:2a:e1:68:ef:5f:9b:16:55:c3:25:be:ea:19:c7:03:
         3d:2b:6b:41:b2:1e:8a:04:00:dd:f7:ca:88:37:53:69:77:b7:
         cc:51:8a:ec:d9:f4:dc:4c:00:ed:fc:cf:6f:45:6e:f3:e3:04:
         80:0b:32:2f:7c:60:9f:47:52:61:c2:cf:e5:50:e7:5b:55:a7:
         27:11:bf:c9:14:93:62:4e:25:47:18:d6:a0:fe:82:da:02:98:
         6e:17:28:a2
-----BEGIN CERTIFICATE-----
MIIDizCCAnMCAQMwDQYJKoZIhvcNAQENBQAwgYExCzAJBgNVBAYTAlVTMQswCQYD
VQQIDAJDQTEVMBMGA1UECgwMT3BlbiB2U3dpdGNoMREwDwYDVQQLDAhzd2l0Y2hj
YTE7MDkGA1UEAwwyT1ZTIHN3aXRjaGNhIENBIENlcnRpZmljYXRlICgyMDIxIFNl
cCAwNiAxMDowMTozMCkwHhcNMjEwOTA2MDIwMTMxWhcNMzEwOTA0MDIwMTMxWjCB
lDELMAkGA1UEBhMCVVMxCzAJBgNVBAgMAkNBMRUwEwYDVQQKDAxPcGVuIHZTd2l0
Y2gxHzAdBgNVBAsMFk9wZW4gdlN3aXRjaCBjZXJ0aWZpZXIxQDA+BgNVBAMMN3Rl
c3RzL3BraS90ZXN0MiBpZDpjNjg3OWQ0My03ZjdlLTRlMjYtOGU4Yy03ODBkMTU1
NjkzNDMwggEiMA0GCSqGSIb3DQEBAQUAA4IBDwAwggEKAoIBAQC6NDXG0JyMVCsY
EWquq9LDs7x/iuhLKZlGTC4Q/5H/4aqDS3mXevm57Hc8j4RweJHs3J+7bMyP/kLl
TMTfSMPi6EDAKX6MU/mo2fDek+Msso78AmeetFTvYofZ7BGuAHJsRO4LV+fwYvGp
SjVzyb6fhKK155JOyCffmtqzU/CR/rD5/wRYtfUwva5z5pJyfgm/s7zkc85zC0NB
COQtr0rafYXVCkYESZopq5bGcndy3KCWVpUvDFYV1y4cOz8LkwYD3mKQjctFB0Nk
ztuBsZivBLJQK0tAx0oxCxra6bS5KePCZcKqAeJbU3YmlPumLG3Of/ZMZdAom0U4
2GQqNF9dAgMBAAEwDQYJKoZIhvcNAQENBQADggEBABBoCBXBopASO/lbCtaXV4KN
ZwTKxi8WNg6aixJR5GDO2cfl53biZd8oiypK37gNB0txZNoAzWqPYvM1OKVauGOv
CwVQY9Lp9zRlNqNtjlYoB5kubdeRWyUg3OsViCadYTqW9x8ScrU/3KypEdWUgj2D
4+j9hR5Gz8jNOP9erAG+NeI6u6CdbBw7XsHpQPIW94NNt3jwVOObcsFEuQIdx11O
VBxVPCrhaO9fmxZVwyW+6hnHAz0ra0GyHooEAN33yog3U2l3t8xRiuzZ9NxMAO38
z29FbvPjBIALMi98YJ9HUmHCz+VQ51tVpycRv8kUk2JOJUcY1qD+gtoCmG4XKKI=
-----END CERTIFICATE-----
